; Function Attrs: nounwind uwtable
define range(i32 -1, 1) i32 @H5C_start_logging(ptr nocapture noundef readonly %0) local_unnamed_addr #0 {
  %2 = getelementptr inbounds i8, ptr %0, i64 8
  %3 = load ptr, ptr %2, align 8
  %4 = load i8, ptr %3, align 8
  %5 = and i8 %4, 1
  %6 = icmp eq i8 %5, 0
  br i1 %6, label %7, label %11

7:                                                ; preds = %1
  %8 = load i64, ptr @H5E_CACHE_g, align 8
  %9 = load i64, ptr @H5E_LOGGING_g, align 8
  %10 = tail call i32 (ptr, ptr, i32, i64, i64, ptr, ...) @H5E_printf_stack(ptr noundef nonnull @.str, ptr noundef nonnull @__func__.H5C_start_logging, i32 noundef 184, i64 noundef %8, i64 noundef %9, ptr noundef nonnull @.str.6) #3
  br label %40

11:                                               ; preds = %1
  %12 = getelementptr inbounds i8, ptr %3, i64 8
  %13 = load ptr, ptr %12, align 8
  %14 = getelementptr inbounds i8, ptr %13, i64 16
  %15 = load ptr, ptr %14, align 8
  %.not = icmp eq ptr %15, null
  br i1 %.not, label %23, label %16

16:                                               ; preds = %11
  %17 = tail call i32 %15(ptr noundef nonnull %3) #3
  %18 = icmp slt i32 %17, 0
  br i1 %18, label %19, label %._crit_edge

._crit_edge:                                      ; preds = %16
  %.pre = load ptr, ptr %2, align 8
  br label %23

19:                                               ; preds = %16
  %20 = load i64, ptr @H5E_CACHE_g, align 8
  %21 = load i64, ptr @H5E_LOGGING_g, align 8
  %22 = tail call i32 (ptr, ptr, i32, i64, i64, ptr, ...) @H5E_printf_stack(ptr noundef nonnull @.str, ptr noundef nonnull @__func__.H5C_start_logging, i32 noundef 189, i64 noundef %20, i64 noundef %21, ptr noundef nonnull @.str.9) #3
  br label %40

23:                                               ; preds = %._crit_edge, %11
  %24 = phi ptr [ %.pre, %._crit_edge ], [ %3, %11 ]
  %25 = getelementptr inbounds i8, ptr %24, i64 1
  store i8 1, ptr %25, align 1
  %26 = load ptr, ptr %2, align 8
  %27 = getelementptr inbounds i8, ptr %26, i64 8
  %28 = load ptr, ptr %27, align 8
  %29 = getelementptr inbounds i8, ptr %28, i64 32
  %30 = load ptr, ptr %29, align 8
  %.not13 = icmp eq ptr %30, null
  br i1 %.not13, label %40, label %31

31:                                               ; preds = %23
  %32 = getelementptr inbounds i8, ptr %26, i64 16
  %33 = load ptr, ptr %32, align 8
  %34 = tail call i32 %30(ptr noundef %33) #3
  %35 = icmp slt i32 %34, 0
  br i1 %35, label %36, label %40

36:                                               ; preds = %31
  %37 = load i64, ptr @H5E_CACHE_g, align 8
  %38 = load i64, ptr @H5E_LOGGING_g, align 8
  %39 = tail call i32 (ptr, ptr, i32, i64, i64, ptr, ...) @H5E_printf_stack(ptr noundef nonnull @.str, ptr noundef nonnull @__func__.H5C_start_logging, i32 noundef 197, i64 noundef %37, i64 noundef %38, ptr noundef nonnull @.str.10) #3
  br label %40

40:                                               ; preds = %23, %31, %36, %19, %7
  %.0 = phi i32 [ -1, %7 ], [ -1, %19 ], [ -1, %36 ], [ 0, %31 ], [ 0, %23 ]
  ret i32 %.0
}